target datalayout = "e-m:e-p270:32:32-p271:32:32-p272:64:64-i64:64-i128:128-f80:128-n8:16:32:64-S128"
target triple = "x86_64-pc-linux-gnu"

%union.pthread_mutex_t = type { %struct.__pthread_mutex_s }
%struct.__pthread_mutex_s = type { i32, i32, i32, i32, i32, i16, i16, %struct.__pthread_internal_list }
%struct.__pthread_internal_list = type { ptr, ptr }
%struct.hostlist = type { i32, %union.pthread_mutex_t, i32, i32, i32, ptr, ptr }
%struct.hostrange_t = type { ptr, i64, i64, i32, i8 }
%struct.hostlist_iterator = type { i32, ptr, i32, ptr, i32, ptr }

@.str.7 = private unnamed_addr constant [11 x i8] c"hostlist.c\00", align 1
@__func__.hostrange_new = private unnamed_addr constant [14 x i8] c"hostrange_new\00", align 1
@__func__.hostlist_resize = private unnamed_addr constant [16 x i8] c"hostlist_resize\00", align 1

; Function Attrs: nounwind uwtable
define internal ptr @hostrange_new() #0 {
  %1 = call ptr @slurm_xcalloc(i64 noundef 1, i64 noundef 32, i1 noundef zeroext true, i1 noundef zeroext false, ptr noundef @.str.7, i32 noundef 563, ptr noundef @__func__.hostrange_new)
  ret ptr %1
}

; Function Attrs: nounwind uwtable
define internal ptr @hostrange_create(ptr noundef %0, i64 noundef %1, i64 noundef %2, i32 noundef %3) #0 {
  %5 = alloca ptr, align 8
  %6 = alloca i64, align 8
  %7 = alloca i64, align 8
  %8 = alloca i32, align 4
  %9 = alloca ptr, align 8
  store ptr %0, ptr %5, align 8
  store i64 %1, ptr %6, align 8
  store i64 %2, ptr %7, align 8
  store i32 %3, ptr %8, align 4
  call void @llvm.lifetime.start.p0(i64 8, ptr %9) #13
  %10 = call ptr @hostrange_new()
  store ptr %10, ptr %9, align 8
  %11 = load ptr, ptr %5, align 8
  %12 = call ptr @xstrdup(ptr noundef %11)
  %13 = load ptr, ptr %9, align 8
  %14 = getelementptr inbounds nuw %struct.hostrange_t, ptr %13, i32 0, i32 0
  store ptr %12, ptr %14, align 8
  %15 = load i64, ptr %6, align 8
  %16 = load ptr, ptr %9, align 8
  %17 = getelementptr inbounds nuw %struct.hostrange_t, ptr %16, i32 0, i32 1
  store i64 %15, ptr %17, align 8
  %18 = load i64, ptr %7, align 8
  %19 = load ptr, ptr %9, align 8
  %20 = getelementptr inbounds nuw %struct.hostrange_t, ptr %19, i32 0, i32 2
  store i64 %18, ptr %20, align 8
  %21 = load i32, ptr %8, align 4
  %22 = load ptr, ptr %9, align 8
  %23 = getelementptr inbounds nuw %struct.hostrange_t, ptr %22, i32 0, i32 3
  store i32 %21, ptr %23, align 8
  %24 = load ptr, ptr %9, align 8
  %25 = getelementptr inbounds nuw %struct.hostrange_t, ptr %24, i32 0, i32 4
  store i8 0, ptr %25, align 4
  %26 = load ptr, ptr %9, align 8
  call void @llvm.lifetime.end.p0(i64 8, ptr %9) #13
  ret ptr %26
}

; Function Attrs: nounwind uwtable
define internal ptr @hostrange_create_single(ptr noundef %0) #0 {
  %2 = alloca ptr, align 8
  %3 = alloca ptr, align 8
  store ptr %0, ptr %2, align 8
  call void @llvm.lifetime.start.p0(i64 8, ptr %3) #13
  %4 = call ptr @hostrange_new()
  store ptr %4, ptr %3, align 8
  %5 = load ptr, ptr %2, align 8
  %6 = call ptr @xstrdup(ptr noundef %5)
  %7 = load ptr, ptr %3, align 8
  %8 = getelementptr inbounds nuw %struct.hostrange_t, ptr %7, i32 0, i32 0
  store ptr %6, ptr %8, align 8
  %9 = load ptr, ptr %3, align 8
  %10 = getelementptr inbounds nuw %struct.hostrange_t, ptr %9, i32 0, i32 4
  store i8 1, ptr %10, align 4
  %11 = load ptr, ptr %3, align 8
  %12 = getelementptr inbounds nuw %struct.hostrange_t, ptr %11, i32 0, i32 1
  store i64 0, ptr %12, align 8
  %13 = load ptr, ptr %3, align 8
  %14 = getelementptr inbounds nuw %struct.hostrange_t, ptr %13, i32 0, i32 2
  store i64 0, ptr %14, align 8
  %15 = load ptr, ptr %3, align 8
  %16 = getelementptr inbounds nuw %struct.hostrange_t, ptr %15, i32 0, i32 3
  store i32 0, ptr %16, align 8
  %17 = load ptr, ptr %3, align 8
  call void @llvm.lifetime.end.p0(i64 8, ptr %3) #13
  ret ptr %17
}

; Function Attrs: nounwind uwtable
define internal void @hostlist_resize(ptr noundef %0, i64 noundef %1) #0 {
  %3 = alloca ptr, align 8
  %4 = alloca i64, align 8
  store ptr %0, ptr %3, align 8
  store i64 %1, ptr %4, align 8
  %5 = load i64, ptr %4, align 8
  %6 = trunc i64 %5 to i32
  %7 = load ptr, ptr %3, align 8
  %8 = getelementptr inbounds nuw %struct.hostlist, ptr %7, i32 0, i32 2
  store i32 %6, ptr %8, align 8
  %9 = load ptr, ptr %3, align 8
  %10 = getelementptr inbounds nuw %struct.hostlist, ptr %9, i32 0, i32 5
  %11 = load ptr, ptr %3, align 8
  %12 = getelementptr inbounds nuw %struct.hostlist, ptr %11, i32 0, i32 2
  %13 = load i32, ptr %12, align 8
  %14 = sext i32 %13 to i64
  %15 = call ptr @slurm_xrecalloc(ptr noundef %10, i64 noundef %14, i64 noundef 8, i1 noundef zeroext true, i1 noundef zeroext false, ptr noundef @.str.7, i32 noundef 1166, ptr noundef @__func__.hostlist_resize)
  ret void
}

; Function Attrs: nounwind uwtable
define internal ptr @hostrange_copy(ptr noundef %0) #0 {
  %2 = alloca ptr, align 8
  %3 = alloca ptr, align 8
  store ptr %0, ptr %3, align 8
  %4 = load ptr, ptr %3, align 8
  %5 = getelementptr inbounds nuw %struct.hostrange_t, ptr %4, i32 0, i32 4
  %6 = load i8, ptr %5, align 4, !range !12, !noundef !13
  %7 = trunc i8 %6 to i1
  br i1 %7, label %8, label %13

8:                                                ; preds = %1
  %9 = load ptr, ptr %3, align 8
  %10 = getelementptr inbounds nuw %struct.hostrange_t, ptr %9, i32 0, i32 0
  %11 = load ptr, ptr %10, align 8
  %12 = call ptr @hostrange_create_single(ptr noundef %11)
  store ptr %12, ptr %2, align 8
  br label %27

13:                                               ; preds = %1
  %14 = load ptr, ptr %3, align 8
  %15 = getelementptr inbounds nuw %struct.hostrange_t, ptr %14, i32 0, i32 0
  %16 = load ptr, ptr %15, align 8
  %17 = load ptr, ptr %3, align 8
  %18 = getelementptr inbounds nuw %struct.hostrange_t, ptr %17, i32 0, i32 1
  %19 = load i64, ptr %18, align 8
  %20 = load ptr, ptr %3, align 8
  %21 = getelementptr inbounds nuw %struct.hostrange_t, ptr %20, i32 0, i32 2
  %22 = load i64, ptr %21, align 8
  %23 = load ptr, ptr %3, align 8
  %24 = getelementptr inbounds nuw %struct.hostrange_t, ptr %23, i32 0, i32 3
  %25 = load i32, ptr %24, align 8
  %26 = call ptr @hostrange_create(ptr noundef %16, i64 noundef %19, i64 noundef %22, i32 noundef %25)
  store ptr %26, ptr %2, align 8
  br label %27

27:                                               ; preds = %13, %8
  %28 = load ptr, ptr %2, align 8
  ret ptr %28
}

; Function Attrs: nounwind uwtable
define internal void @hostlist_expand(ptr noundef %0) #0 {
  %2 = alloca ptr, align 8
  store ptr %0, ptr %2, align 8
  %3 = load ptr, ptr %2, align 8
  %4 = load ptr, ptr %2, align 8
  %5 = getelementptr inbounds nuw %struct.hostlist, ptr %4, i32 0, i32 2
  %6 = load i32, ptr %5, align 8
  %7 = add nsw i32 %6, 16
  %8 = sext i32 %7 to i64
  call void @hostlist_resize(ptr noundef %3, i64 noundef %8)
  ret void
}

; Function Attrs: nounwind uwtable
define internal i32 @hostlist_insert_range(ptr noundef %0, ptr noundef %1, i32 noundef %2) #0 {
  %4 = alloca i32, align 4
  %5 = alloca ptr, align 8
  %6 = alloca ptr, align 8
  %7 = alloca i32, align 4
  %8 = alloca i32, align 4
  %9 = alloca ptr, align 8
  %10 = alloca ptr, align 8
  %11 = alloca i32, align 4
  %12 = alloca ptr, align 8
  store ptr %0, ptr %5, align 8
  store ptr %1, ptr %6, align 8
  store i32 %2, ptr %7, align 4
  call void @llvm.lifetime.start.p0(i64 4, ptr %8) #13
  call void @llvm.lifetime.start.p0(i64 8, ptr %9) #13
  call void @llvm.lifetime.start.p0(i64 8, ptr %10) #13
  %13 = load i32, ptr %7, align 4
  %14 = load ptr, ptr %5, align 8
  %15 = getelementptr inbounds nuw %struct.hostlist, ptr %14, i32 0, i32 3
  %16 = load i32, ptr %15, align 4
  %17 = icmp sgt i32 %13, %16
  br i1 %17, label %18, label %19

18:                                               ; preds = %3
  store i32 0, ptr %4, align 4
  store i32 1, ptr %11, align 4
  br label %111

19:                                               ; preds = %3
  %20 = load ptr, ptr %5, align 8
  %21 = getelementptr inbounds nuw %struct.hostlist, ptr %20, i32 0, i32 2
  %22 = load i32, ptr %21, align 8
  %23 = load ptr, ptr %5, align 8
  %24 = getelementptr inbounds nuw %struct.hostlist, ptr %23, i32 0, i32 3
  %25 = load i32, ptr %24, align 4
  %26 = icmp eq i32 %22, %25
  br i1 %26, label %27, label %29

27:                                               ; preds = %19
  %28 = load ptr, ptr %5, align 8
  call void @hostlist_expand(ptr noundef %28)
  br label %29

29:                                               ; preds = %27, %19
  %30 = load ptr, ptr %5, align 8
  %31 = getelementptr inbounds nuw %struct.hostlist, ptr %30, i32 0, i32 5
  %32 = load ptr, ptr %31, align 8
  %33 = load i32, ptr %7, align 4
  %34 = sext i32 %33 to i64
  %35 = getelementptr inbounds ptr, ptr %32, i64 %34
  %36 = load ptr, ptr %35, align 8
  store ptr %36, ptr %9, align 8
  %37 = load ptr, ptr %6, align 8
  %38 = call ptr @hostrange_copy(ptr noundef %37)
  %39 = load ptr, ptr %5, align 8
  %40 = getelementptr inbounds nuw %struct.hostlist, ptr %39, i32 0, i32 5
  %41 = load ptr, ptr %40, align 8
  %42 = load i32, ptr %7, align 4
  %43 = sext i32 %42 to i64
  %44 = getelementptr inbounds ptr, ptr %41, i64 %43
  store ptr %38, ptr %44, align 8
  %45 = load i32, ptr %7, align 4
  %46 = add nsw i32 %45, 1
  store i32 %46, ptr %8, align 4
  br label %47

47:                                               ; preds = %70, %29
  %48 = load i32, ptr %8, align 4
  %49 = load ptr, ptr %5, align 8
  %50 = getelementptr inbounds nuw %struct.hostlist, ptr %49, i32 0, i32 3
  %51 = load i32, ptr %50, align 4
  %52 = add nsw i32 %51, 1
  %53 = icmp slt i32 %48, %52
  br i1 %53, label %54, label %73

54:                                               ; preds = %47
  call void @llvm.lifetime.start.p0(i64 8, ptr %12) #13
  %55 = load ptr, ptr %5, align 8
  %56 = getelementptr inbounds nuw %struct.hostlist, ptr %55, i32 0, i32 5
  %57 = load ptr, ptr %56, align 8
  %58 = load i32, ptr %8, align 4
  %59 = sext i32 %58 to i64
  %60 = getelementptr inbounds ptr, ptr %57, i64 %59
  %61 = load ptr, ptr %60, align 8
  store ptr %61, ptr %12, align 8
  %62 = load ptr, ptr %9, align 8
  %63 = load ptr, ptr %5, align 8
  %64 = getelementptr inbounds nuw %struct.hostlist, ptr %63, i32 0, i32 5
  %65 = load ptr, ptr %64, align 8
  %66 = load i32, ptr %8, align 4
  %67 = sext i32 %66 to i64
  %68 = getelementptr inbounds ptr, ptr %65, i64 %67
  store ptr %62, ptr %68, align 8
  %69 = load ptr, ptr %12, align 8
  store ptr %69, ptr %9, align 8
  call void @llvm.lifetime.end.p0(i64 8, ptr %12) #13
  br label %70

70:                                               ; preds = %54
  %71 = load i32, ptr %8, align 4
  %72 = add nsw i32 %71, 1
  store i32 %72, ptr %8, align 4
  br label %47, !llvm.loop !41

73:                                               ; preds = %47
  %74 = load ptr, ptr %5, align 8
  %75 = getelementptr inbounds nuw %struct.hostlist, ptr %74, i32 0, i32 3
  %76 = load i32, ptr %75, align 4
  %77 = add nsw i32 %76, 1
  store i32 %77, ptr %75, align 4
  %78 = load ptr, ptr %5, align 8
  %79 = getelementptr inbounds nuw %struct.hostlist, ptr %78, i32 0, i32 6
  %80 = load ptr, ptr %79, align 8
  store ptr %80, ptr %10, align 8
  br label %81

81:                                               ; preds = %106, %73
  %82 = load ptr, ptr %10, align 8
  %83 = icmp ne ptr %82, null
  br i1 %83, label %84, label %110

84:                                               ; preds = %81
  %85 = load ptr, ptr %10, align 8
  %86 = getelementptr inbounds nuw %struct.hostlist_iterator, ptr %85, i32 0, i32 2
  %87 = load i32, ptr %86, align 8
  %88 = load i32, ptr %7, align 4
  %89 = icmp sge i32 %87, %88
  br i1 %89, label %90, label %105

90:                                               ; preds = %84
  %91 = load ptr, ptr %10, align 8
  %92 = getelementptr inbounds nuw %struct.hostlist_iterator, ptr %91, i32 0, i32 1
  %93 = load ptr, ptr %92, align 8
  %94 = getelementptr inbounds nuw %struct.hostlist, ptr %93, i32 0, i32 5
  %95 = load ptr, ptr %94, align 8
  %96 = load ptr, ptr %10, align 8
  %97 = getelementptr inbounds nuw %struct.hostlist_iterator, ptr %96, i32 0, i32 2
  %98 = load i32, ptr %97, align 8
  %99 = add nsw i32 %98, 1
  store i32 %99, ptr %97, align 8
  %100 = sext i32 %99 to i64
  %101 = getelementptr inbounds ptr, ptr %95, i64 %100
  %102 = load ptr, ptr %101, align 8
  %103 = load ptr, ptr %10, align 8
  %104 = getelementptr inbounds nuw %struct.hostlist_iterator, ptr %103, i32 0, i32 3
  store ptr %102, ptr %104, align 8
  br label %105

105:                                              ; preds = %90, %84
  br label %106

106:                                              ; preds = %105
  %107 = load ptr, ptr %10, align 8
  %108 = getelementptr inbounds nuw %struct.hostlist_iterator, ptr %107, i32 0, i32 5
  %109 = load ptr, ptr %108, align 8
  store ptr %109, ptr %10, align 8
  br label %81, !llvm.loop !42

110:                                              ; preds = %81
  store i32 1, ptr %4, align 4
  store i32 1, ptr %11, align 4
  br label %111

111:                                              ; preds = %110, %18
  call void @llvm.lifetime.end.p0(i64 8, ptr %10) #13
  call void @llvm.lifetime.end.p0(i64 8, ptr %9) #13
  call void @llvm.lifetime.end.p0(i64 4, ptr %8) #13
  %112 = load i32, ptr %4, align 4
  ret i32 %112
}