; Function Attrs: nounwind uwtable
define internal fastcc void @hostlist_insert_range(ptr noundef %0, ptr noundef readonly captures(none) %1, i32 noundef %2) unnamed_addr #0 {
  %4 = getelementptr inbounds nuw i8, ptr %0, i64 52
  %5 = load i32, ptr %4, align 4
  %6 = icmp sgt i32 %2, %5
  br i1 %6, label %.loopexit, label %7

7:                                                ; preds = %3
  %8 = getelementptr inbounds nuw i8, ptr %0, i64 48
  %9 = load i32, ptr %8, align 8
  %10 = icmp eq i32 %9, %5
  br i1 %10, label %11, label %16

11:                                               ; preds = %7
  %12 = add nsw i32 %5, 16
  %13 = sext i32 %12 to i64
  store i32 %12, ptr %8, align 8
  %14 = getelementptr inbounds nuw i8, ptr %0, i64 64
  %15 = tail call ptr @slurm_xrecalloc(ptr noundef nonnull %14, i64 noundef range(i64 -2147483648, 2147483648) %13, i64 noundef 8, i1 noundef zeroext true, i1 noundef zeroext false, ptr noundef nonnull @.str.7, i32 noundef 1166, ptr noundef nonnull @__func__.hostlist_resize) #22
  br label %16

16:                                               ; preds = %11, %7
  %17 = getelementptr inbounds nuw i8, ptr %0, i64 64
  %18 = load ptr, ptr %17, align 8
  %19 = sext i32 %2 to i64
  %20 = getelementptr inbounds ptr, ptr %18, i64 %19
  %21 = load ptr, ptr %20, align 8
  %22 = getelementptr inbounds nuw i8, ptr %1, i64 28
  %23 = load i8, ptr %22, align 4, !range !14, !noundef !15
  %24 = trunc nuw i8 %23 to i1
  %25 = load ptr, ptr %1, align 8
  br i1 %24, label %26, label %31

26:                                               ; preds = %16
  %27 = tail call ptr @slurm_xcalloc(i64 noundef 1, i64 noundef 32, i1 noundef zeroext true, i1 noundef zeroext false, ptr noundef nonnull @.str.7, i32 noundef 563, ptr noundef nonnull @__func__.hostrange_new) #22
  %28 = tail call ptr @xstrdup(ptr noundef %25) #22
  store ptr %28, ptr %27, align 8
  %29 = getelementptr inbounds nuw i8, ptr %27, i64 28
  store i8 1, ptr %29, align 4
  %30 = getelementptr inbounds nuw i8, ptr %27, i64 8
  tail call void @llvm.memset.p0.i64(ptr noundef nonnull align 8 dereferenceable(20) %30, i8 0, i64 20, i1 false)
  br label %hostrange_copy.exit

31:                                               ; preds = %16
  %32 = getelementptr inbounds nuw i8, ptr %1, i64 8
  %33 = load i64, ptr %32, align 8
  %34 = getelementptr inbounds nuw i8, ptr %1, i64 16
  %35 = load i64, ptr %34, align 8
  %36 = getelementptr inbounds nuw i8, ptr %1, i64 24
  %37 = load i32, ptr %36, align 8
  %38 = tail call ptr @slurm_xcalloc(i64 noundef 1, i64 noundef 32, i1 noundef zeroext true, i1 noundef zeroext false, ptr noundef nonnull @.str.7, i32 noundef 563, ptr noundef nonnull @__func__.hostrange_new) #22
  %39 = tail call ptr @xstrdup(ptr noundef %25) #22
  store ptr %39, ptr %38, align 8
  %40 = getelementptr inbounds nuw i8, ptr %38, i64 8
  store i64 %33, ptr %40, align 8
  %41 = getelementptr inbounds nuw i8, ptr %38, i64 16
  store i64 %35, ptr %41, align 8
  %42 = getelementptr inbounds nuw i8, ptr %38, i64 24
  store i32 %37, ptr %42, align 8
  %43 = getelementptr inbounds nuw i8, ptr %38, i64 28
  store i8 0, ptr %43, align 4
  br label %hostrange_copy.exit

hostrange_copy.exit:                              ; preds = %26, %31
  %.0.i = phi ptr [ %27, %26 ], [ %38, %31 ]
  %44 = load ptr, ptr %17, align 8
  %45 = getelementptr inbounds ptr, ptr %44, i64 %19
  store ptr %.0.i, ptr %45, align 8
  %46 = load i32, ptr %4, align 4
  %47 = icmp slt i32 %2, %46
  br i1 %47, label %.lr.ph, label %._crit_edge

.lr.ph:                                           ; preds = %hostrange_copy.exit, %.lr.ph
  %indvars.iv = phi i64 [ %indvars.iv.next, %.lr.ph ], [ %19, %hostrange_copy.exit ]
  %.03038 = phi ptr [ %50, %.lr.ph ], [ %21, %hostrange_copy.exit ]
  %indvars.iv.next = add nsw i64 %indvars.iv, 1
  %48 = load ptr, ptr %17, align 8
  %49 = getelementptr inbounds ptr, ptr %48, i64 %indvars.iv.next
  %50 = load ptr, ptr %49, align 8
  store ptr %.03038, ptr %49, align 8
  %51 = load i32, ptr %4, align 4
  %52 = sext i32 %51 to i64
  %53 = icmp slt i64 %indvars.iv.next, %52
  br i1 %53, label %.lr.ph, label %._crit_edge, !llvm.loop !39

._crit_edge:                                      ; preds = %.lr.ph, %hostrange_copy.exit
  %.lcssa = phi i32 [ %46, %hostrange_copy.exit ], [ %51, %.lr.ph ]
  %54 = add nsw i32 %.lcssa, 1
  store i32 %54, ptr %4, align 4
  %55 = getelementptr inbounds nuw i8, ptr %0, i64 72
  %.02939 = load ptr, ptr %55, align 8
  %.not40 = icmp eq ptr %.02939, null
  br i1 %.not40, label %.loopexit, label %.lr.ph43

.lr.ph43:                                         ; preds = %._crit_edge, %68
  %.02941 = phi ptr [ %.029, %68 ], [ %.02939, %._crit_edge ]
  %56 = getelementptr inbounds nuw i8, ptr %.02941, i64 16
  %57 = load i32, ptr %56, align 8
  %.not36 = icmp slt i32 %57, %2
  br i1 %.not36, label %68, label %58

58:                                               ; preds = %.lr.ph43
  %59 = getelementptr inbounds nuw i8, ptr %.02941, i64 8
  %60 = load ptr, ptr %59, align 8
  %61 = getelementptr inbounds nuw i8, ptr %60, i64 64
  %62 = load ptr, ptr %61, align 8
  %63 = add nsw i32 %57, 1
  store i32 %63, ptr %56, align 8
  %64 = sext i32 %63 to i64
  %65 = getelementptr inbounds ptr, ptr %62, i64 %64
  %66 = load ptr, ptr %65, align 8
  %67 = getelementptr inbounds nuw i8, ptr %.02941, i64 24
  store ptr %66, ptr %67, align 8
  br label %68

68:                                               ; preds = %.lr.ph43, %58
  %69 = getelementptr inbounds nuw i8, ptr %.02941, i64 40
  %.029 = load ptr, ptr %69, align 8
  %.not = icmp eq ptr %.029, null
  br i1 %.not, label %.loopexit, label %.lr.ph43, !llvm.loop !40

.loopexit:                                        ; preds = %68, %._crit_edge, %3
  ret void
}